; Function Attrs: nounwind uwtable
define dso_local void @ReconnectToServer(ptr noundef %0, ptr noundef %1) local_unnamed_addr #0 {
  %3 = getelementptr inbounds nuw i8, ptr %0, i64 440
  %4 = load ptr, ptr %3, align 8
  %5 = getelementptr inbounds nuw i8, ptr %0, i64 8
  %6 = load ptr, ptr %5, align 8
  %.not = icmp eq ptr %1, null
  br i1 %.not, label %10, label %7

7:                                                ; preds = %2
  %8 = tail call ptr @pg_strdup(ptr noundef nonnull %1) #11
  %9 = getelementptr inbounds nuw i8, ptr %6, i64 312
  store ptr %8, ptr %9, align 8
  br label %10

10:                                               ; preds = %7, %2
  store ptr null, ptr %3, align 8
  %11 = getelementptr inbounds nuw i8, ptr %6, i64 272
  tail call void @ConnectDatabase(ptr noundef nonnull %0, ptr noundef nonnull %11, i1 noundef zeroext true)
  tail call void @PQfinish(ptr noundef %4) #11
  ret void
}